; Function Attrs: nounwind sspstrong uwtable
define internal void @ide_bus_class_init(ptr noundef %klass, ptr readnone captures(none) %data) #0 {
entry:
  %call.i = tail call ptr @object_class_dynamic_cast_assert(ptr noundef %klass, ptr noundef nonnull @.str.5, ptr noundef nonnull @.str.6, i32 noundef 316, ptr noundef nonnull @__func__.BUS_CLASS) #6
  %get_fw_dev_path = getelementptr inbounds nuw i8, ptr %call.i, i64 112
  store ptr @idebus_get_fw_dev_path, ptr %get_fw_dev_path, align 8
  %unrealize = getelementptr inbounds nuw i8, ptr %call.i, i64 144
  store ptr @idebus_unrealize, ptr %unrealize, align 8
  ret void
}